; Function Attrs: nounwind uwtable
define internal noundef i32 @lua_cjson_safe_new(ptr noundef %0) #0 {
  %2 = tail call i32 @lua_cjson_new(ptr noundef %0)
  tail call void @lua_pushcclosure(ptr noundef %0, ptr noundef nonnull @lua_cjson_safe_new, i32 noundef 0) #12
  tail call void @lua_setfield(ptr noundef %0, i32 noundef -2, ptr noundef nonnull @.str.10) #12
  br label %3

3:                                                ; preds = %1, %3
  %indvars.iv = phi i64 [ 0, %1 ], [ %indvars.iv.next, %3 ]
  %4 = getelementptr inbounds nuw [3 x ptr], ptr @__const.lua_cjson_safe_new.func, i64 0, i64 %indvars.iv
  %5 = load ptr, ptr %4, align 8, !tbaa !30
  tail call void @lua_getfield(ptr noundef %0, i32 noundef -1, ptr noundef %5) #12
  tail call void @lua_pushcclosure(ptr noundef %0, ptr noundef nonnull @json_protect_conversion, i32 noundef 1) #12
  tail call void @lua_setfield(ptr noundef %0, i32 noundef -2, ptr noundef %5) #12
  %indvars.iv.next = add nuw nsw i64 %indvars.iv, 1
  %.not = icmp eq i64 %indvars.iv.next, 2
  br i1 %.not, label %6, label %3, !llvm.loop !31

6:                                                ; preds = %3
  ret i32 1
}